target datalayout = "e-m:e-p270:32:32-p271:32:32-p272:64:64-i64:64-i128:128-f80:128-n8:16:32:64-S128"
target triple = "x86_64-pc-linux-gnu"

%struct.Qureg = type { i32, i32, i32, i64, i64, i32, i32, %struct.ComplexArray, %struct.ComplexArray, %struct.ComplexArray, ptr, ptr, ptr, ptr, ptr, ptr }
%struct.ComplexArray = type { ptr, ptr }
%struct.ComplexMatrixN = type { i32, ptr, ptr }

@__func__.multiControlledMultiQubitUnitary = private unnamed_addr constant [33 x i8] c"multiControlledMultiQubitUnitary\00", align 1
@.str.7 = private unnamed_addr constant [71 x i8] c"Here, an undisclosed multi-controlled multi-qubit unitary was applied.\00", align 1

; Function Attrs: nounwind uwtable
define void @multiControlledMultiQubitUnitary(ptr noundef byval(%struct.Qureg) align 8 %0, ptr noundef %1, i32 noundef %2, ptr noundef %3, i32 noundef %4, ptr noundef byval(%struct.ComplexMatrixN) align 8 %5) #0 {
  %7 = alloca ptr, align 8
  %8 = alloca i32, align 4
  %9 = alloca ptr, align 8
  %10 = alloca i32, align 4
  %11 = alloca i64, align 8
  %12 = alloca i32, align 4
  store ptr %1, ptr %7, align 8, !tbaa !27
  store i32 %2, ptr %8, align 4, !tbaa !4
  store ptr %3, ptr %9, align 8, !tbaa !27
  store i32 %4, ptr %10, align 4, !tbaa !4
  %13 = load ptr, ptr %7, align 8, !tbaa !27
  %14 = load i32, ptr %8, align 4, !tbaa !4
  %15 = load ptr, ptr %9, align 8, !tbaa !27
  %16 = load i32, ptr %10, align 4, !tbaa !4
  call void @validateMultiControlsMultiTargets(ptr noundef byval(%struct.Qureg) align 8 %0, ptr noundef %13, i32 noundef %14, ptr noundef %15, i32 noundef %16, ptr noundef @__func__.multiControlledMultiQubitUnitary)
  %17 = load i32, ptr %10, align 4, !tbaa !4
  call void @validateMultiQubitUnitaryMatrix(ptr noundef byval(%struct.Qureg) align 8 %0, ptr noundef byval(%struct.ComplexMatrixN) align 8 %5, i32 noundef %17, ptr noundef @__func__.multiControlledMultiQubitUnitary)
  call void @llvm.lifetime.start.p0(i64 8, ptr %11) #7
  %18 = load ptr, ptr %7, align 8, !tbaa !27
  %19 = load i32, ptr %8, align 4, !tbaa !4
  %20 = call i64 @getQubitBitMask(ptr noundef %18, i32 noundef %19)
  store i64 %20, ptr %11, align 8, !tbaa !22
  %21 = load i64, ptr %11, align 8, !tbaa !22
  %22 = load ptr, ptr %9, align 8, !tbaa !27
  %23 = load i32, ptr %10, align 4, !tbaa !4
  call void @statevec_multiControlledMultiQubitUnitary(ptr noundef byval(%struct.Qureg) align 8 %0, i64 noundef %21, ptr noundef %22, i32 noundef %23, ptr noundef byval(%struct.ComplexMatrixN) align 8 %5)
  %24 = getelementptr inbounds nuw %struct.Qureg, ptr %0, i32 0, i32 0
  %25 = load i32, ptr %24, align 8, !tbaa !13
  %26 = icmp ne i32 %25, 0
  br i1 %26, label %27, label %43

27:                                               ; preds = %6
  call void @llvm.lifetime.start.p0(i64 4, ptr %12) #7
  %28 = getelementptr inbounds nuw %struct.Qureg, ptr %0, i32 0, i32 1
  %29 = load i32, ptr %28, align 4, !tbaa !18
  store i32 %29, ptr %12, align 4, !tbaa !4
  %30 = load ptr, ptr %9, align 8, !tbaa !27
  %31 = load i32, ptr %10, align 4, !tbaa !4
  %32 = load i32, ptr %12, align 4, !tbaa !4
  call void @shiftIndices(ptr noundef %30, i32 noundef %31, i32 noundef %32)
  call void @setConjugateMatrixN(ptr noundef byval(%struct.ComplexMatrixN) align 8 %5)
  %33 = load i64, ptr %11, align 8, !tbaa !22
  %34 = load i32, ptr %12, align 4, !tbaa !4
  %35 = zext i32 %34 to i64
  %36 = shl i64 %33, %35
  %37 = load ptr, ptr %9, align 8, !tbaa !27
  %38 = load i32, ptr %10, align 4, !tbaa !4
  call void @statevec_multiControlledMultiQubitUnitary(ptr noundef byval(%struct.Qureg) align 8 %0, i64 noundef %36, ptr noundef %37, i32 noundef %38, ptr noundef byval(%struct.ComplexMatrixN) align 8 %5)
  %39 = load ptr, ptr %9, align 8, !tbaa !27
  %40 = load i32, ptr %10, align 4, !tbaa !4
  %41 = load i32, ptr %12, align 4, !tbaa !4
  %42 = sub nsw i32 0, %41
  call void @shiftIndices(ptr noundef %39, i32 noundef %40, i32 noundef %42)
  call void @setConjugateMatrixN(ptr noundef byval(%struct.ComplexMatrixN) align 8 %5)
  call void @llvm.lifetime.end.p0(i64 4, ptr %12) #7
  br label %43

43:                                               ; preds = %27, %6
  call void (ptr, ptr, ...) @qasm_recordComment(ptr noundef byval(%struct.Qureg) align 8 %0, ptr noundef @.str.7)
  call void @llvm.lifetime.end.p0(i64 8, ptr %11) #7
  ret void
}